; ModuleID = 'source-C-CXX/29/172.cpp'
source_filename = "source-C-CXX/29/172.cpp"
target datalayout = "e-m:e-p270:32:32-p271:32:32-p272:64:64-i64:64-f80:128-n8:16:32:64-S128"
target triple = "x86_64-pc-linux-gnu"

%"class.std::ios_base::Init" = type { i8 }
%"class.std::basic_istream" = type { i32 (...)**, i64, %"class.std::basic_ios" }
%"class.std::basic_ios" = type { %"class.std::ios_base", %"class.std::basic_ostream"*, i8, i8, %"class.std::basic_streambuf"*, %"class.std::ctype"*, %"class.std::num_put"*, %"class.std::num_get"* }
%"class.std::ios_base" = type { i32 (...)**, i64, i64, i32, i32, i32, %"struct.std::ios_base::_Callback_list"*, %"struct.std::ios_base::_Words", [8 x %"struct.std::ios_base::_Words"], i32, %"struct.std::ios_base::_Words"*, %"class.std::locale" }
%"struct.std::ios_base::_Callback_list" = type { %"struct.std::ios_base::_Callback_list"*, void (i32, %"class.std::ios_base"*, i32)*, i32, i32 }
%"struct.std::ios_base::_Words" = type { i8*, i64 }
%"class.std::locale" = type { %"class.std::locale::_Impl"* }
%"class.std::locale::_Impl" = type { i32, %"class.std::locale::facet"**, i64, %"class.std::locale::facet"**, i8** }
%"class.std::locale::facet" = type <{ i32 (...)**, i32, [4 x i8] }>
%"class.std::basic_ostream" = type { i32 (...)**, %"class.std::basic_ios" }
%"class.std::basic_streambuf" = type { i32 (...)**, i8*, i8*, i8*, i8*, i8*, i8*, %"class.std::locale" }
%"class.std::ctype" = type <{ %"class.std::locale::facet.base", [4 x i8], %struct.__locale_struct*, i8, [7 x i8], i32*, i32*, i16*, i8, [256 x i8], [256 x i8], i8, [6 x i8] }>
%"class.std::locale::facet.base" = type <{ i32 (...)**, i32 }>
%struct.__locale_struct = type { [13 x %struct.__locale_data*], i16*, i32*, i32*, [13 x i8*] }
%struct.__locale_data = type opaque
%"class.std::num_put" = type { %"class.std::locale::facet.base", [4 x i8] }
%"class.std::num_get" = type { %"class.std::locale::facet.base", [4 x i8] }

@_ZStL8__ioinit = internal global %"class.std::ios_base::Init" zeroinitializer, align 1
@__dso_handle = external hidden global i8
@_ZSt3cin = external global %"class.std::basic_istream", align 8
@_ZSt4cout = external global %"class.std::basic_ostream", align 8
@llvm.global_ctors = appending global [1 x { i32, void ()*, i8* }] [{ i32, void ()*, i8* } { i32 65535, void ()* @_GLOBAL__sub_I_172.cpp, i8* null }]

declare void @_ZNSt8ios_base4InitC1Ev(%"class.std::ios_base::Init"* nonnull align 1 dereferenceable(1)) unnamed_addr #0

; Function Attrs: nounwind
declare void @_ZNSt8ios_base4InitD1Ev(%"class.std::ios_base::Init"* nonnull align 1 dereferenceable(1)) unnamed_addr #1

; Function Attrs: nofree nounwind
declare i32 @__cxa_atexit(void (i8*)*, i8*, i8*) local_unnamed_addr #2

; Function Attrs: mustprogress norecurse sspstrong uwtable
define dso_local i32 @main() local_unnamed_addr #3 {
  %1 = alloca i32, align 4
  %2 = bitcast i32* %1 to i8*
  call void @llvm.lifetime.start.p0i8(i64 4, i8* nonnull %2) #9
  store i32 0, i32* %1, align 4, !tbaa !5
  %3 = call nonnull align 8 dereferenceable(16) %"class.std::basic_istream"* @_ZNSirsERi(%"class.std::basic_istream"* nonnull align 8 dereferenceable(16) @_ZSt3cin, i32* nonnull align 4 dereferenceable(4) %1)
  %4 = load i32, i32* %1, align 4, !tbaa !5
  %5 = zext i32 %4 to i64
  %6 = call i8* @llvm.stacksave()
  %7 = alloca i32, i64 %5, align 16
  %8 = load i32, i32* %1, align 4, !tbaa !5
  %9 = icmp sgt i32 %8, 0
  br i1 %9, label %10, label %134

10:                                               ; preds = %0
  %11 = zext i32 %8 to i64
  %12 = icmp ult i32 %8, 8
  br i1 %12, label %63, label %13

13:                                               ; preds = %10
  %14 = and i64 %11, 4294967288
  %15 = add nsw i64 %14, -8
  %16 = lshr exact i64 %15, 3
  %17 = add nuw nsw i64 %16, 1
  %18 = and i64 %17, 1
  %19 = icmp eq i64 %15, 0
  br i1 %19, label %50, label %20

20:                                               ; preds = %13
  %21 = and i64 %17, 4611686018427387902
  br label %22

22:                                               ; preds = %22, %20
  %23 = phi i64 [ 0, %20 ], [ %44, %22 ]
  %24 = phi <4 x i64> [ <i64 0, i64 1, i64 2, i64 3>, %20 ], [ %45, %22 ]
  %25 = phi i64 [ %21, %20 ], [ %46, %22 ]
  %26 = getelementptr inbounds i32, i32* %7, i64 %23
  %27 = trunc <4 x i64> %24 to <4 x i32>
  %28 = add <4 x i32> %27, <i32 1, i32 1, i32 1, i32 1>
  %29 = trunc <4 x i64> %24 to <4 x i32>
  %30 = add <4 x i32> %29, <i32 5, i32 5, i32 5, i32 5>
  %31 = bitcast i32* %26 to <4 x i32>*
  store <4 x i32> %28, <4 x i32>* %31, align 16, !tbaa !5
  %32 = getelementptr inbounds i32, i32* %26, i64 4
  %33 = bitcast i32* %32 to <4 x i32>*
  store <4 x i32> %30, <4 x i32>* %33, align 16, !tbaa !5
  %34 = or i64 %23, 8
  %35 = add <4 x i64> %24, <i64 8, i64 8, i64 8, i64 8>
  %36 = getelementptr inbounds i32, i32* %7, i64 %34
  %37 = trunc <4 x i64> %35 to <4 x i32>
  %38 = add <4 x i32> %37, <i32 1, i32 1, i32 1, i32 1>
  %39 = trunc <4 x i64> %35 to <4 x i32>
  %40 = add <4 x i32> %39, <i32 5, i32 5, i32 5, i32 5>
  %41 = bitcast i32* %36 to <4 x i32>*
  store <4 x i32> %38, <4 x i32>* %41, align 16, !tbaa !5
  %42 = getelementptr inbounds i32, i32* %36, i64 4
  %43 = bitcast i32* %42 to <4 x i32>*
  store <4 x i32> %40, <4 x i32>* %43, align 16, !tbaa !5
  %44 = add nuw i64 %23, 16
  %45 = add <4 x i64> %24, <i64 16, i64 16, i64 16, i64 16>
  %46 = add i64 %25, -2
  %47 = icmp eq i64 %46, 0
  br i1 %47, label %48, label %22, !llvm.loop !9

48:                                               ; preds = %22
  %49 = trunc <4 x i64> %45 to <4 x i32>
  br label %50

50:                                               ; preds = %48, %13
  %51 = phi i64 [ 0, %13 ], [ %44, %48 ]
  %52 = phi <4 x i32> [ <i32 0, i32 1, i32 2, i32 3>, %13 ], [ %49, %48 ]
  %53 = icmp eq i64 %18, 0
  br i1 %53, label %61, label %54

54:                                               ; preds = %50
  %55 = getelementptr inbounds i32, i32* %7, i64 %51
  %56 = add <4 x i32> %52, <i32 1, i32 1, i32 1, i32 1>
  %57 = add <4 x i32> %52, <i32 5, i32 5, i32 5, i32 5>
  %58 = bitcast i32* %55 to <4 x i32>*
  store <4 x i32> %56, <4 x i32>* %58, align 16, !tbaa !5
  %59 = getelementptr inbounds i32, i32* %55, i64 4
  %60 = bitcast i32* %59 to <4 x i32>*
  store <4 x i32> %57, <4 x i32>* %60, align 16, !tbaa !5
  br label %61

61:                                               ; preds = %50, %54
  %62 = icmp eq i64 %14, %11
  br i1 %62, label %65, label %63

63:                                               ; preds = %10, %61
  %64 = phi i64 [ 0, %10 ], [ %14, %61 ]
  br label %128

65:                                               ; preds = %128, %61
  br i1 %9, label %66, label %134

66:                                               ; preds = %65
  %67 = zext i32 %8 to i64
  %68 = icmp ult i32 %8, 8
  br i1 %68, label %125, label %69

69:                                               ; preds = %66
  %70 = and i64 %11, 4294967288
  br label %71

71:                                               ; preds = %71, %69
  %72 = phi i64 [ 0, %69 ], [ %119, %71 ]
  %73 = phi <4 x i32> [ zeroinitializer, %69 ], [ %116, %71 ]
  %74 = phi <4 x i32> [ zeroinitializer, %69 ], [ %118, %71 ]
  %75 = getelementptr inbounds i32, i32* %7, i64 %72
  %76 = bitcast i32* %75 to <4 x i32>*
  %77 = load <4 x i32>, <4 x i32>* %76, align 16, !tbaa !5
  %78 = getelementptr inbounds i32, i32* %75, i64 4
  %79 = bitcast i32* %78 to <4 x i32>*
  %80 = load <4 x i32>, <4 x i32>* %79, align 16, !tbaa !5
  %81 = icmp sgt <4 x i32> %77, <i32 9, i32 9, i32 9, i32 9>
  %82 = icmp sgt <4 x i32> %80, <i32 9, i32 9, i32 9, i32 9>
  %83 = srem <4 x i32> %77, <i32 7, i32 7, i32 7, i32 7>
  %84 = srem <4 x i32> %80, <i32 7, i32 7, i32 7, i32 7>
  %85 = icmp eq <4 x i32> %83, zeroinitializer
  %86 = icmp eq <4 x i32> %84, zeroinitializer
  %87 = or <4 x i1> %81, %85
  %88 = or <4 x i1> %82, %86
  %89 = mul nsw <4 x i32> %77, %77
  %90 = mul nsw <4 x i32> %80, %80
  %91 = select <4 x i1> %87, <4 x i32> zeroinitializer, <4 x i32> %89
  %92 = select <4 x i1> %88, <4 x i32> zeroinitializer, <4 x i32> %90
  %93 = add <4 x i32> %91, %73
  %94 = add <4 x i32> %92, %74
  %95 = icmp slt <4 x i32> %77, <i32 10, i32 10, i32 10, i32 10>
  %96 = icmp slt <4 x i32> %80, <i32 10, i32 10, i32 10, i32 10>
  %97 = or <4 x i1> %95, %85
  %98 = or <4 x i1> %96, %86
  %99 = urem <4 x i32> %77, <i32 10, i32 10, i32 10, i32 10>
  %100 = urem <4 x i32> %80, <i32 10, i32 10, i32 10, i32 10>
  %101 = icmp ne <4 x i32> %99, <i32 7, i32 7, i32 7, i32 7>
  %102 = icmp ne <4 x i32> %100, <i32 7, i32 7, i32 7, i32 7>
  %103 = sub nuw nsw <4 x i32> %77, %99
  %104 = sub nuw nsw <4 x i32> %80, %100
  %105 = urem <4 x i32> %103, <i32 7, i32 7, i32 7, i32 7>
  %106 = urem <4 x i32> %104, <i32 7, i32 7, i32 7, i32 7>
  %107 = icmp eq <4 x i32> %105, zeroinitializer
  %108 = icmp eq <4 x i32> %106, zeroinitializer
  %109 = select <4 x i1> %107, <4 x i32> zeroinitializer, <4 x i32> %89
  %110 = select <4 x i1> %108, <4 x i32> zeroinitializer, <4 x i32> %90
  %111 = xor <4 x i1> %97, <i1 true, i1 true, i1 true, i1 true>
  %112 = xor <4 x i1> %98, <i1 true, i1 true, i1 true, i1 true>
  %113 = select <4 x i1> %111, <4 x i1> %101, <4 x i1> zeroinitializer
  %114 = select <4 x i1> %112, <4 x i1> %102, <4 x i1> zeroinitializer
  %115 = select <4 x i1> %113, <4 x i32> %109, <4 x i32> zeroinitializer
  %116 = add <4 x i32> %93, %115
  %117 = select <4 x i1> %114, <4 x i32> %110, <4 x i32> zeroinitializer
  %118 = add <4 x i32> %94, %117
  %119 = add nuw i64 %72, 8
  %120 = icmp eq i64 %119, %70
  br i1 %120, label %121, label %71, !llvm.loop !12

121:                                              ; preds = %71
  %122 = add <4 x i32> %118, %116
  %123 = call i32 @llvm.vector.reduce.add.v4i32(<4 x i32> %122)
  %124 = icmp eq i64 %70, %11
  br i1 %124, label %134, label %125

125:                                              ; preds = %66, %121
  %126 = phi i64 [ 0, %66 ], [ %70, %121 ]
  %127 = phi i32 [ 0, %66 ], [ %123, %121 ]
  br label %166

128:                                              ; preds = %63, %128
  %129 = phi i64 [ %130, %128 ], [ %64, %63 ]
  %130 = add nuw nsw i64 %129, 1
  %131 = getelementptr inbounds i32, i32* %7, i64 %129
  %132 = trunc i64 %130 to i32
  store i32 %132, i32* %131, align 4, !tbaa !5
  %133 = icmp eq i64 %130, %11
  br i1 %133, label %65, label %128, !llvm.loop !13

134:                                              ; preds = %189, %121, %0, %65
  %135 = phi i32 [ 0, %65 ], [ 0, %0 ], [ %123, %121 ], [ %190, %189 ]
  %136 = call nonnull align 8 dereferenceable(8) %"class.std::basic_ostream"* @_ZNSolsEi(%"class.std::basic_ostream"* nonnull align 8 dereferenceable(8) @_ZSt4cout, i32 %135)
  %137 = bitcast %"class.std::basic_ostream"* %136 to i8**
  %138 = load i8*, i8** %137, align 8, !tbaa !15
  %139 = getelementptr i8, i8* %138, i64 -24
  %140 = bitcast i8* %139 to i64*
  %141 = load i64, i64* %140, align 8
  %142 = bitcast %"class.std::basic_ostream"* %136 to i8*
  %143 = add nsw i64 %141, 240
  %144 = getelementptr inbounds i8, i8* %142, i64 %143
  %145 = bitcast i8* %144 to %"class.std::ctype"**
  %146 = load %"class.std::ctype"*, %"class.std::ctype"** %145, align 8, !tbaa !17
  %147 = icmp eq %"class.std::ctype"* %146, null
  br i1 %147, label %148, label %149

148:                                              ; preds = %134
  call void @_ZSt16__throw_bad_castv() #10
  unreachable

149:                                              ; preds = %134
  %150 = getelementptr inbounds %"class.std::ctype", %"class.std::ctype"* %146, i64 0, i32 8
  %151 = load i8, i8* %150, align 8, !tbaa !21
  %152 = icmp eq i8 %151, 0
  br i1 %152, label %156, label %153

153:                                              ; preds = %149
  %154 = getelementptr inbounds %"class.std::ctype", %"class.std::ctype"* %146, i64 0, i32 9, i64 10
  %155 = load i8, i8* %154, align 1, !tbaa !23
  br label %162

156:                                              ; preds = %149
  call void @_ZNKSt5ctypeIcE13_M_widen_initEv(%"class.std::ctype"* nonnull align 8 dereferenceable(570) %146)
  %157 = bitcast %"class.std::ctype"* %146 to i8 (%"class.std::ctype"*, i8)***
  %158 = load i8 (%"class.std::ctype"*, i8)**, i8 (%"class.std::ctype"*, i8)*** %157, align 8, !tbaa !15
  %159 = getelementptr inbounds i8 (%"class.std::ctype"*, i8)*, i8 (%"class.std::ctype"*, i8)** %158, i64 6
  %160 = load i8 (%"class.std::ctype"*, i8)*, i8 (%"class.std::ctype"*, i8)** %159, align 8
  %161 = call signext i8 %160(%"class.std::ctype"* nonnull align 8 dereferenceable(570) %146, i8 signext 10)
  br label %162

162:                                              ; preds = %153, %156
  %163 = phi i8 [ %155, %153 ], [ %161, %156 ]
  %164 = call nonnull align 8 dereferenceable(8) %"class.std::basic_ostream"* @_ZNSo3putEc(%"class.std::basic_ostream"* nonnull align 8 dereferenceable(8) %136, i8 signext %163)
  %165 = call nonnull align 8 dereferenceable(8) %"class.std::basic_ostream"* @_ZNSo5flushEv(%"class.std::basic_ostream"* nonnull align 8 dereferenceable(8) %164)
  call void @llvm.stackrestore(i8* %6)
  call void @llvm.lifetime.end.p0i8(i64 4, i8* nonnull %2) #9
  ret i32 0

166:                                              ; preds = %125, %189
  %167 = phi i64 [ %191, %189 ], [ %126, %125 ]
  %168 = phi i32 [ %190, %189 ], [ %127, %125 ]
  %169 = getelementptr inbounds i32, i32* %7, i64 %167
  %170 = load i32, i32* %169, align 4, !tbaa !5
  %171 = icmp sgt i32 %170, 9
  %172 = srem i32 %170, 7
  %173 = icmp eq i32 %172, 0
  %174 = or i1 %171, %173
  %175 = mul nsw i32 %170, %170
  %176 = select i1 %174, i32 0, i32 %175
  %177 = add nsw i32 %176, %168
  %178 = icmp slt i32 %170, 10
  %179 = or i1 %178, %173
  br i1 %179, label %189, label %180

180:                                              ; preds = %166
  %181 = urem i32 %170, 10
  %182 = icmp eq i32 %181, 7
  br i1 %182, label %189, label %183

183:                                              ; preds = %180
  %184 = sub nuw nsw i32 %170, %181
  %185 = urem i32 %184, 7
  %186 = icmp eq i32 %185, 0
  %187 = select i1 %186, i32 0, i32 %175
  %188 = add nsw i32 %177, %187
  br label %189

189:                                              ; preds = %183, %166, %180
  %190 = phi i32 [ %177, %180 ], [ %177, %166 ], [ %188, %183 ]
  %191 = add nuw nsw i64 %167, 1
  %192 = icmp eq i64 %191, %67
  br i1 %192, label %134, label %166, !llvm.loop !24
}

; Function Attrs: argmemonly mustprogress nofree nosync nounwind willreturn
declare void @llvm.lifetime.start.p0i8(i64 immarg, i8* nocapture) #4

declare nonnull align 8 dereferenceable(16) %"class.std::basic_istream"* @_ZNSirsERi(%"class.std::basic_istream"* nonnull align 8 dereferenceable(16), i32* nonnull align 4 dereferenceable(4)) local_unnamed_addr #0

; Function Attrs: mustprogress nofree nosync nounwind willreturn
declare i8* @llvm.stacksave() #5

; Function Attrs: argmemonly mustprogress nofree nosync nounwind willreturn
declare void @llvm.lifetime.end.p0i8(i64 immarg, i8* nocapture) #4

declare nonnull align 8 dereferenceable(8) %"class.std::basic_ostream"* @_ZNSolsEi(%"class.std::basic_ostream"* nonnull align 8 dereferenceable(8), i32) local_unnamed_addr #0

; Function Attrs: mustprogress nofree nosync nounwind willreturn
declare void @llvm.stackrestore(i8*) #5

declare nonnull align 8 dereferenceable(8) %"class.std::basic_ostream"* @_ZNSo3putEc(%"class.std::basic_ostream"* nonnull align 8 dereferenceable(8), i8 signext) local_unnamed_addr #0

declare nonnull align 8 dereferenceable(8) %"class.std::basic_ostream"* @_ZNSo5flushEv(%"class.std::basic_ostream"* nonnull align 8 dereferenceable(8)) local_unnamed_addr #0

; Function Attrs: noreturn
declare void @_ZSt16__throw_bad_castv() local_unnamed_addr #6

declare void @_ZNKSt5ctypeIcE13_M_widen_initEv(%"class.std::ctype"* nonnull align 8 dereferenceable(570)) local_unnamed_addr #0

; Function Attrs: sspstrong uwtable
define internal void @_GLOBAL__sub_I_172.cpp() #7 section ".text.startup" {
  tail call void @_ZNSt8ios_base4InitC1Ev(%"class.std::ios_base::Init"* nonnull align 1 dereferenceable(1) @_ZStL8__ioinit)
  %1 = tail call i32 @__cxa_atexit(void (i8*)* bitcast (void (%"class.std::ios_base::Init"*)* @_ZNSt8ios_base4InitD1Ev to void (i8*)*), i8* getelementptr inbounds (%"class.std::ios_base::Init", %"class.std::ios_base::Init"* @_ZStL8__ioinit, i64 0, i32 0), i8* nonnull @__dso_handle) #9
  ret void
}

; Function Attrs: nofree nosync nounwind readnone willreturn
declare i32 @llvm.vector.reduce.add.v4i32(<4 x i32>) #8


!llvm.module.flags = !{!0, !1, !2, !3}
!llvm.ident = !{!4}

!0 = !{i32 1, !"wchar_size", i32 4}
!1 = !{i32 7, !"PIC Level", i32 2}
!2 = !{i32 7, !"PIE Level", i32 2}
!3 = !{i32 7, !"uwtable", i32 1}
!4 = !{!"clang version 13.0.0"}
!5 = !{!6, !6, i64 0}
!6 = !{!"int", !7, i64 0}
!7 = !{!"omnipotent char", !8, i64 0}
!8 = !{!"Simple C++ TBAA"}
!9 = distinct !{!9, !10, !11}
!10 = !{!"llvm.loop.mustprogress"}
!11 = !{!"llvm.loop.isvectorized", i32 1}
!12 = distinct !{!12, !10, !11}
!13 = distinct !{!13, !10, !14, !11}
!14 = !{!"llvm.loop.unroll.runtime.disable"}
!15 = !{!16, !16, i64 0}
!16 = !{!"vtable pointer", !8, i64 0}
!17 = !{!18, !19, i64 240}
!18 = !{!"_ZTSSt9basic_iosIcSt11char_traitsIcEE", !19, i64 216, !7, i64 224, !20, i64 225, !19, i64 232, !19, i64 240, !19, i64 248, !19, i64 256}
!19 = !{!"any pointer", !7, i64 0}
!20 = !{!"bool", !7, i64 0}
!21 = !{!22, !7, i64 56}
!22 = !{!"_ZTSSt5ctypeIcE", !19, i64 16, !20, i64 24, !19, i64 32, !19, i64 40, !19, i64 48, !7, i64 56, !7, i64 57, !7, i64 313, !7, i64 569}
!23 = !{!7, !7, i64 0}
!24 = distinct !{!24, !10, !14, !11}
